; Function Attrs: mustprogress nofree norecurse nosync nounwind willreturn memory(argmem: read) uwtable
define { ptr, i64 } @_ZNK32pxrInternal_v0_24__pxrReserved__16UsdResolveTarget12GetStartNodeEv(ptr nocapture noundef nonnull readonly align 8 dereferenceable(96) %0) local_unnamed_addr #4 align 2 {
  %2 = getelementptr inbounds nuw i8, ptr %0, i64 48
  %3 = getelementptr inbounds i8, ptr %0, i64 32
  %4 = load ptr, ptr %2, align 8
  %5 = load ptr, ptr %3, align 8
  %6 = icmp ne ptr %4, %5
  %7 = getelementptr inbounds i8, ptr %0, i64 56
  %8 = load i64, ptr %7, align 8
  %9 = getelementptr inbounds i8, ptr %0, i64 40
  %10 = load i64, ptr %9, align 8
  %11 = icmp ne i64 %8, %10
  %.not3.i = or i1 %6, %11
  %spec.select = select i1 %.not3.i, i64 %8, i64 -1
  %spec.select1 = select i1 %.not3.i, ptr %4, ptr null
  %.fca.0.insert = insertvalue { ptr, i64 } poison, ptr %spec.select1, 0
  %.fca.1.insert = insertvalue { ptr, i64 } %.fca.0.insert, i64 %spec.select, 1
  ret { ptr, i64 } %.fca.1.insert
}